target datalayout = "e-m:e-p270:32:32-p271:32:32-p272:64:64-i64:64-i128:128-f80:128-n8:16:32:64-S128"
target triple = "x86_64-pc-linux-gnu"

%"class.std::exception_ptr" = type { ptr }
%"class.std::__1::promise" = type { ptr }

; Function Attrs: mustprogress uwtable
define dso_local void @_ZNSt3__17promiseIvE28set_exception_at_thread_exitESt13exception_ptr(ptr noundef nonnull align 8 dereferenceable(8) %0, ptr noundef %1) #1 align 2 personality ptr @__gxx_personality_v0 {
  %3 = alloca ptr, align 8
  %4 = alloca ptr, align 8
  %5 = alloca %"class.std::exception_ptr", align 8
  %6 = alloca ptr, align 8
  %7 = alloca i32, align 4
  store ptr %0, ptr %3, align 8, !tbaa !66
  store ptr %1, ptr %4, align 8, !tbaa !48
  %8 = load ptr, ptr %3, align 8
  %9 = getelementptr inbounds nuw %"class.std::__1::promise", ptr %8, i32 0, i32 0
  %10 = load ptr, ptr %9, align 8, !tbaa !68
  %11 = icmp eq ptr %10, null
  br i1 %11, label %12, label %13

12:                                               ; preds = %2
  call void @_ZNSt3__120__throw_future_errorB8ne210000ENS_11future_errcE(i32 noundef 3) #18
  unreachable

13:                                               ; preds = %2
  %14 = getelementptr inbounds nuw %"class.std::__1::promise", ptr %8, i32 0, i32 0
  %15 = load ptr, ptr %14, align 8, !tbaa !68
  call void @_ZNSt13exception_ptrC1ERKS_(ptr noundef nonnull align 8 dereferenceable(8) %5, ptr noundef nonnull align 8 dereferenceable(8) %1) #2
  invoke void @_ZNSt3__117__assoc_sub_state28set_exception_at_thread_exitESt13exception_ptr(ptr noundef nonnull align 8 dereferenceable(116) %15, ptr noundef %5)
          to label %16 unwind label %17

16:                                               ; preds = %13
  call void @_ZNSt13exception_ptrD1Ev(ptr noundef nonnull align 8 dereferenceable(8) %5) #2
  ret void

17:                                               ; preds = %13
  %18 = landingpad { ptr, i32 }
          cleanup
  %19 = extractvalue { ptr, i32 } %18, 0
  store ptr %19, ptr %6, align 8
  %20 = extractvalue { ptr, i32 } %18, 1
  store i32 %20, ptr %7, align 4
  call void @_ZNSt13exception_ptrD1Ev(ptr noundef nonnull align 8 dereferenceable(8) %5) #2
  br label %21

21:                                               ; preds = %17
  %22 = load ptr, ptr %6, align 8
  %23 = load i32, ptr %7, align 4
  %24 = insertvalue { ptr, i32 } poison, ptr %22, 0
  %25 = insertvalue { ptr, i32 } %24, i32 %23, 1
  resume { ptr, i32 } %25
}