; Function Attrs: mustprogress uwtable
define dso_local void @_ZNSt3__17promiseIvE28set_exception_at_thread_exitESt13exception_ptr(ptr noundef nonnull readonly align 8 captures(none) dereferenceable(8) %0, ptr noundef %1) local_unnamed_addr #1 align 2 personality ptr @__gxx_personality_v0 {
  %3 = alloca %"class.std::exception_ptr", align 8
  %4 = load ptr, ptr %0, align 8, !tbaa !39
  %5 = icmp eq ptr %4, null
  br i1 %5, label %6, label %7

6:                                                ; preds = %2
  tail call void @_ZNSt3__120__throw_future_errorB8ne210000ENS_11future_errcE(i32 noundef 3) #23
  unreachable

7:                                                ; preds = %2
  call void @_ZNSt13exception_ptrC1ERKS_(ptr noundef nonnull align 8 dereferenceable(8) %3, ptr noundef nonnull align 8 dereferenceable(8) %1) #21
  invoke void @_ZNSt3__117__assoc_sub_state28set_exception_at_thread_exitESt13exception_ptr(ptr noundef nonnull align 8 dereferenceable(116) %4, ptr noundef nonnull %3)
          to label %8 unwind label %9

8:                                                ; preds = %7
  call void @_ZNSt13exception_ptrD1Ev(ptr noundef nonnull align 8 dereferenceable(8) %3) #21
  ret void

9:                                                ; preds = %7
  %10 = landingpad { ptr, i32 }
          cleanup
  call void @_ZNSt13exception_ptrD1Ev(ptr noundef nonnull align 8 dereferenceable(8) %3) #21
  resume { ptr, i32 } %10
}